; Function Attrs: mustprogress uwtable
define void @_ZN6icu_7713DecimalFormat17setPositiveSuffixERKNS_13UnicodeStringE(ptr noundef nonnull align 8 dereferenceable(72) %0, ptr noundef nonnull align 8 dereferenceable(64) %1) unnamed_addr #1 align 2 {
  %3 = alloca i32, align 4
  %4 = getelementptr inbounds nuw i8, ptr %0, i64 64
  %5 = load ptr, ptr %4, align 8, !tbaa !25
  %6 = icmp eq ptr %5, null
  br i1 %6, label %41, label %7

7:                                                ; preds = %2
  %8 = getelementptr inbounds nuw i8, ptr %1, i64 8
  %9 = load i16, ptr %8, align 8, !tbaa !20
  %10 = and i16 %9, 1
  %.not.i = icmp eq i16 %10, 0
  br i1 %.not.i, label %15, label %11

11:                                               ; preds = %7
  %12 = getelementptr inbounds nuw i8, ptr %5, i64 624
  %13 = load i16, ptr %12, align 8, !tbaa !20
  %14 = and i16 %13, 1
  %.not = icmp eq i16 %14, 0
  br i1 %.not, label %_ZNK6icu_7713UnicodeStringeqERKS0_.exit.thread, label %41

15:                                               ; preds = %7
  %16 = icmp slt i16 %9, 0
  %17 = ashr i16 %9, 5
  %18 = sext i16 %17 to i32
  %19 = getelementptr inbounds nuw i8, ptr %1, i64 12
  %20 = load i32, ptr %19, align 4
  %21 = select i1 %16, i32 %20, i32 %18
  %22 = getelementptr inbounds nuw i8, ptr %5, i64 624
  %23 = load i16, ptr %22, align 8, !tbaa !20
  %24 = icmp slt i16 %23, 0
  %25 = ashr i16 %23, 5
  %26 = sext i16 %25 to i32
  %27 = getelementptr inbounds nuw i8, ptr %5, i64 628
  %28 = load i32, ptr %27, align 4
  %29 = select i1 %24, i32 %28, i32 %26
  %30 = and i16 %23, 1
  %.not9.i = icmp eq i16 %30, 0
  %31 = icmp eq i32 %21, %29
  %or.cond.i = and i1 %.not9.i, %31
  br i1 %or.cond.i, label %_ZNK6icu_7713UnicodeStringeqERKS0_.exit, label %_ZNK6icu_7713UnicodeStringeqERKS0_.exit.thread

_ZNK6icu_7713UnicodeStringeqERKS0_.exit:          ; preds = %15
  %32 = and i16 %23, 2
  %.not.i.i.i = icmp eq i16 %32, 0
  %33 = getelementptr inbounds nuw i8, ptr %5, i64 626
  %34 = getelementptr inbounds nuw i8, ptr %5, i64 640
  %35 = load ptr, ptr %34, align 8
  %36 = select i1 %.not.i.i.i, ptr %35, ptr %33
  %37 = tail call noundef signext i8 @_ZNK6icu_7713UnicodeString8doEqualsEPKDsi(ptr noundef nonnull align 8 dereferenceable(64) %1, ptr noundef %36, i32 noundef %21)
  %.not4 = icmp eq i8 %37, 0
  br i1 %.not4, label %_ZNK6icu_7713UnicodeStringeqERKS0_.exit._ZNK6icu_7713UnicodeStringeqERKS0_.exit.thread_crit_edge, label %41

_ZNK6icu_7713UnicodeStringeqERKS0_.exit._ZNK6icu_7713UnicodeStringeqERKS0_.exit.thread_crit_edge: ; preds = %_ZNK6icu_7713UnicodeStringeqERKS0_.exit
  %.pre = load ptr, ptr %4, align 8, !tbaa !25
  br label %_ZNK6icu_7713UnicodeStringeqERKS0_.exit.thread

_ZNK6icu_7713UnicodeStringeqERKS0_.exit.thread:   ; preds = %_ZNK6icu_7713UnicodeStringeqERKS0_.exit._ZNK6icu_7713UnicodeStringeqERKS0_.exit.thread_crit_edge, %15, %11
  %38 = phi ptr [ %.pre, %_ZNK6icu_7713UnicodeStringeqERKS0_.exit._ZNK6icu_7713UnicodeStringeqERKS0_.exit.thread_crit_edge ], [ %5, %15 ], [ %5, %11 ]
  %39 = getelementptr inbounds nuw i8, ptr %38, i64 616
  %40 = tail call noundef nonnull align 8 dereferenceable(64) ptr @_ZN6icu_7713UnicodeStringaSERKS0_(ptr noundef nonnull align 8 dereferenceable(64) %39, ptr noundef nonnull align 8 dereferenceable(64) %1)
  call void @llvm.lifetime.start.p0(i64 4, ptr nonnull %3) #19
  store i32 0, ptr %3, align 4, !tbaa !13
  call void @_ZN6icu_7713DecimalFormat5touchER10UErrorCode(ptr noundef nonnull align 8 dereferenceable(72) %0, ptr noundef nonnull align 4 dereferenceable(4) %3)
  call void @llvm.lifetime.end.p0(i64 4, ptr nonnull %3) #19
  br label %41

41:                                               ; preds = %11, %_ZNK6icu_7713UnicodeStringeqERKS0_.exit, %2, %_ZNK6icu_7713UnicodeStringeqERKS0_.exit.thread
  ret void
}